target datalayout = "e-m:e-p270:32:32-p271:32:32-p272:64:64-i64:64-i128:128-f80:128-n8:16:32:64-S128"
target triple = "x86_64-pc-linux-gnu"

%struct.AllocateDesc = type { i32, i32, %union.anon }
%union.anon = type { ptr }
%struct.dirent = type { i64, i64, i16, i8, [256 x i8] }

@.str.1 = private unnamed_addr constant [5 x i8] c"fd.c\00", align 1
@.str.7 = private unnamed_addr constant [31 x i8] c"could not remove file \22%s\22: %m\00", align 1
@.str.16 = private unnamed_addr constant [10 x i8] c"pgsql_tmp\00", align 1
@allocatedDescs = internal global ptr null, align 8
@numAllocatedDescs = internal global i32 0, align 4
@.str.33 = private unnamed_addr constant [56 x i8] c"dir passed to FreeDir was not obtained from AllocateDir\00", align 1
@__func__.FreeDir = private unnamed_addr constant [8 x i8] c"FreeDir\00", align 1
@.str.36 = private unnamed_addr constant [2 x i8] c".\00", align 1
@.str.37 = private unnamed_addr constant [3 x i8] c"..\00", align 1
@.str.40 = private unnamed_addr constant [6 x i8] c"%s/%s\00", align 1
@.str.41 = private unnamed_addr constant [36 x i8] c"could not remove directory \22%s\22: %m\00", align 1
@__func__.RemovePgTempFilesInDir = private unnamed_addr constant [23 x i8] c"RemovePgTempFilesInDir\00", align 1
@.str.42 = private unnamed_addr constant [57 x i8] c"unexpected file found in temporary-files directory: \22%s\22\00", align 1

; Function Attrs: nounwind uwtable
define dso_local i32 @FreeDir(ptr noundef %0) #0 {
  %2 = alloca i32, align 4
  %3 = alloca ptr, align 8
  %4 = alloca i32, align 4
  %5 = alloca i32, align 4
  %6 = alloca ptr, align 8
  store ptr %0, ptr %3, align 8
  call void @llvm.lifetime.start.p0(i64 4, ptr %4) #14
  %7 = load ptr, ptr %3, align 8
  %8 = icmp eq ptr %7, null
  br i1 %8, label %9, label %10

9:                                                ; preds = %1
  store i32 0, ptr %2, align 4
  store i32 1, ptr %5, align 4
  br label %51

10:                                               ; preds = %1
  %11 = load i32, ptr @numAllocatedDescs, align 4
  store i32 %11, ptr %4, align 4
  br label %12

12:                                               ; preds = %37, %10
  %13 = load i32, ptr %4, align 4
  %14 = add i32 %13, -1
  store i32 %14, ptr %4, align 4
  %15 = icmp sge i32 %14, 0
  br i1 %15, label %16, label %38

16:                                               ; preds = %12
  call void @llvm.lifetime.start.p0(i64 8, ptr %6) #14
  %17 = load ptr, ptr @allocatedDescs, align 8
  %18 = load i32, ptr %4, align 4
  %19 = sext i32 %18 to i64
  %20 = getelementptr inbounds %struct.AllocateDesc, ptr %17, i64 %19
  store ptr %20, ptr %6, align 8
  %21 = load ptr, ptr %6, align 8
  %22 = getelementptr inbounds nuw %struct.AllocateDesc, ptr %21, i32 0, i32 0
  %23 = load i32, ptr %22, align 8
  %24 = icmp eq i32 %23, 2
  br i1 %24, label %25, label %34

25:                                               ; preds = %16
  %26 = load ptr, ptr %6, align 8
  %27 = getelementptr inbounds nuw %struct.AllocateDesc, ptr %26, i32 0, i32 2
  %28 = load ptr, ptr %27, align 8
  %29 = load ptr, ptr %3, align 8
  %30 = icmp eq ptr %28, %29
  br i1 %30, label %31, label %34

31:                                               ; preds = %25
  %32 = load ptr, ptr %6, align 8
  %33 = call i32 @FreeDesc(ptr noundef %32)
  store i32 %33, ptr %2, align 4
  store i32 1, ptr %5, align 4
  br label %35

34:                                               ; preds = %25, %16
  store i32 0, ptr %5, align 4
  br label %35

35:                                               ; preds = %34, %31
  call void @llvm.lifetime.end.p0(i64 8, ptr %6) #14
  %36 = load i32, ptr %5, align 4
  switch i32 %36, label %51 [
    i32 0, label %37
  ]

37:                                               ; preds = %35
  br label %12, !llvm.loop !16

38:                                               ; preds = %12
  br label %39

39:                                               ; preds = %38
  br i1 false, label %40, label %42

40:                                               ; preds = %39
  %41 = call zeroext i1 @errstart_cold(i32 noundef 19, ptr noundef null) #16
  br i1 %41, label %44, label %46

42:                                               ; preds = %39
  %43 = call zeroext i1 @errstart(i32 noundef 19, ptr noundef null)
  br i1 %43, label %44, label %46

44:                                               ; preds = %42, %40
  %45 = call i32 (ptr, ...) @errmsg_internal(ptr noundef @.str.33)
  call void @errfinish(ptr noundef @.str.1, i32 noundef 3003, ptr noundef @__func__.FreeDir)
  br label %46

46:                                               ; preds = %44, %42, %40
  br label %47

47:                                               ; preds = %46
  br label %48

48:                                               ; preds = %47
  %49 = load ptr, ptr %3, align 8
  %50 = call i32 @closedir(ptr noundef %49)
  store i32 %50, ptr %2, align 4
  store i32 1, ptr %5, align 4
  br label %51

51:                                               ; preds = %48, %35, %9
  call void @llvm.lifetime.end.p0(i64 4, ptr %4) #14
  %52 = load i32, ptr %2, align 4
  ret i32 %52
}

; Function Attrs: nounwind uwtable
define dso_local void @RemovePgTempFilesInDir(ptr noundef %0, i1 noundef zeroext %1, i1 noundef zeroext %2) #0 {
  %4 = alloca ptr, align 8
  %5 = alloca i8, align 1
  %6 = alloca i8, align 1
  %7 = alloca ptr, align 8
  %8 = alloca ptr, align 8
  %9 = alloca [2048 x i8], align 16
  %10 = alloca i32, align 4
  %11 = alloca i32, align 4
  store ptr %0, ptr %4, align 8
  %12 = zext i1 %1 to i8
  store i8 %12, ptr %5, align 1
  %13 = zext i1 %2 to i8
  store i8 %13, ptr %6, align 1
  call void @llvm.lifetime.start.p0(i64 8, ptr %7) #14
  call void @llvm.lifetime.start.p0(i64 8, ptr %8) #14
  call void @llvm.lifetime.start.p0(i64 2048, ptr %9) #14
  %14 = load ptr, ptr %4, align 8
  %15 = call ptr @AllocateDir(ptr noundef %14)
  store ptr %15, ptr %7, align 8
  %16 = load ptr, ptr %7, align 8
  %17 = icmp eq ptr %16, null
  br i1 %17, label %18, label %26

18:                                               ; preds = %3
  %19 = call ptr @__errno_location() #15
  %20 = load i32, ptr %19, align 4
  %21 = icmp eq i32 %20, 2
  br i1 %21, label %22, label %26

22:                                               ; preds = %18
  %23 = load i8, ptr %5, align 1, !range !4, !noundef !5
  %24 = trunc i8 %23 to i1
  br i1 %24, label %25, label %26

25:                                               ; preds = %22
  store i32 1, ptr %10, align 4
  br label %128

26:                                               ; preds = %22, %18, %3
  br label %27

27:                                               ; preds = %124, %109, %44, %26
  %28 = load ptr, ptr %7, align 8
  %29 = load ptr, ptr %4, align 8
  %30 = call ptr @ReadDirExtended(ptr noundef %28, ptr noundef %29, i32 noundef 15)
  store ptr %30, ptr %8, align 8
  %31 = icmp ne ptr %30, null
  br i1 %31, label %32, label %125

32:                                               ; preds = %27
  %33 = load ptr, ptr %8, align 8
  %34 = getelementptr inbounds nuw %struct.dirent, ptr %33, i32 0, i32 4
  %35 = getelementptr inbounds [256 x i8], ptr %34, i64 0, i64 0
  %36 = call i32 @strcmp(ptr noundef %35, ptr noundef @.str.36) #17
  %37 = icmp eq i32 %36, 0
  br i1 %37, label %44, label %38

38:                                               ; preds = %32
  %39 = load ptr, ptr %8, align 8
  %40 = getelementptr inbounds nuw %struct.dirent, ptr %39, i32 0, i32 4
  %41 = getelementptr inbounds [256 x i8], ptr %40, i64 0, i64 0
  %42 = call i32 @strcmp(ptr noundef %41, ptr noundef @.str.37) #17
  %43 = icmp eq i32 %42, 0
  br i1 %43, label %44, label %45

44:                                               ; preds = %38, %32
  br label %27, !llvm.loop !24

45:                                               ; preds = %38
  %46 = getelementptr inbounds [2048 x i8], ptr %9, i64 0, i64 0
  %47 = load ptr, ptr %4, align 8
  %48 = load ptr, ptr %8, align 8
  %49 = getelementptr inbounds nuw %struct.dirent, ptr %48, i32 0, i32 4
  %50 = getelementptr inbounds [256 x i8], ptr %49, i64 0, i64 0
  %51 = call i32 (ptr, i64, ptr, ...) @pg_snprintf(ptr noundef %46, i64 noundef 2048, ptr noundef @.str.40, ptr noundef %47, ptr noundef %50)
  %52 = load i8, ptr %6, align 1, !range !4, !noundef !5
  %53 = trunc i8 %52 to i1
  br i1 %53, label %60, label %54

54:                                               ; preds = %45
  %55 = load ptr, ptr %8, align 8
  %56 = getelementptr inbounds nuw %struct.dirent, ptr %55, i32 0, i32 4
  %57 = getelementptr inbounds [256 x i8], ptr %56, i64 0, i64 0
  %58 = call i32 @strncmp(ptr noundef %57, ptr noundef @.str.16, i64 noundef 9) #17
  %59 = icmp eq i32 %58, 0
  br i1 %59, label %60, label %112

60:                                               ; preds = %54, %45
  call void @llvm.lifetime.start.p0(i64 4, ptr %11) #14
  %61 = getelementptr inbounds [2048 x i8], ptr %9, i64 0, i64 0
  %62 = load ptr, ptr %8, align 8
  %63 = call i32 @get_dirent_type(ptr noundef %61, ptr noundef %62, i1 noundef zeroext false, i32 noundef 15)
  store i32 %63, ptr %11, align 4
  %64 = load i32, ptr %11, align 4
  %65 = icmp eq i32 %64, 0
  br i1 %65, label %66, label %67

66:                                               ; preds = %60
  store i32 2, ptr %10, align 4
  br label %109, !llvm.loop !24

67:                                               ; preds = %60
  %68 = load i32, ptr %11, align 4
  %69 = icmp eq i32 %68, 3
  br i1 %69, label %70, label %89

70:                                               ; preds = %67
  %71 = getelementptr inbounds [2048 x i8], ptr %9, i64 0, i64 0
  call void @RemovePgTempFilesInDir(ptr noundef %71, i1 noundef zeroext false, i1 noundef zeroext true)
  %72 = getelementptr inbounds [2048 x i8], ptr %9, i64 0, i64 0
  %73 = call i32 @rmdir(ptr noundef %72) #14
  %74 = icmp slt i32 %73, 0
  br i1 %74, label %75, label %88

75:                                               ; preds = %70
  br label %76

76:                                               ; preds = %75
  br i1 false, label %77, label %79

77:                                               ; preds = %76
  %78 = call zeroext i1 @errstart_cold(i32 noundef 15, ptr noundef null) #16
  br i1 %78, label %81, label %85

79:                                               ; preds = %76
  %80 = call zeroext i1 @errstart(i32 noundef 15, ptr noundef null)
  br i1 %80, label %81, label %85

81:                                               ; preds = %79, %77
  %82 = call i32 @errcode_for_file_access()
  %83 = getelementptr inbounds [2048 x i8], ptr %9, i64 0, i64 0
  %84 = call i32 (ptr, ...) @errmsg(ptr noundef @.str.41, ptr noundef %83)
  call void @errfinish(ptr noundef @.str.1, i32 noundef 3394, ptr noundef @__func__.RemovePgTempFilesInDir)
  br label %85

85:                                               ; preds = %81, %79, %77
  br label %86

86:                                               ; preds = %85
  br label %87

87:                                               ; preds = %86
  br label %88

88:                                               ; preds = %87, %70
  br label %107

89:                                               ; preds = %67
  %90 = getelementptr inbounds [2048 x i8], ptr %9, i64 0, i64 0
  %91 = call i32 @unlink(ptr noundef %90) #14
  %92 = icmp slt i32 %91, 0
  br i1 %92, label %93, label %106

93:                                               ; preds = %89
  br label %94

94:                                               ; preds = %93
  br i1 false, label %95, label %97

95:                                               ; preds = %94
  %96 = call zeroext i1 @errstart_cold(i32 noundef 15, ptr noundef null) #16
  br i1 %96, label %99, label %103

97:                                               ; preds = %94
  %98 = call zeroext i1 @errstart(i32 noundef 15, ptr noundef null)
  br i1 %98, label %99, label %103

99:                                               ; preds = %97, %95
  %100 = call i32 @errcode_for_file_access()
  %101 = getelementptr inbounds [2048 x i8], ptr %9, i64 0, i64 0
  %102 = call i32 (ptr, ...) @errmsg(ptr noundef @.str.7, ptr noundef %101)
  call void @errfinish(ptr noundef @.str.1, i32 noundef 3402, ptr noundef @__func__.RemovePgTempFilesInDir)
  br label %103

103:                                              ; preds = %99, %97, %95
  br label %104

104:                                              ; preds = %103
  br label %105

105:                                              ; preds = %104
  br label %106

106:                                              ; preds = %105, %89
  br label %107

107:                                              ; preds = %106, %88
  br label %108

108:                                              ; preds = %107
  store i32 0, ptr %10, align 4
  br label %109

109:                                              ; preds = %108, %66
  call void @llvm.lifetime.end.p0(i64 4, ptr %11) #14
  %110 = load i32, ptr %10, align 4
  switch i32 %110, label %131 [
    i32 0, label %111
    i32 2, label %27
  ]

111:                                              ; preds = %109
  br label %124

112:                                              ; preds = %54
  br label %113

113:                                              ; preds = %112
  br i1 false, label %114, label %116

114:                                              ; preds = %113
  %115 = call zeroext i1 @errstart_cold(i32 noundef 15, ptr noundef null) #16
  br i1 %115, label %118, label %121

116:                                              ; preds = %113
  %117 = call zeroext i1 @errstart(i32 noundef 15, ptr noundef null)
  br i1 %117, label %118, label %121

118:                                              ; preds = %116, %114
  %119 = getelementptr inbounds [2048 x i8], ptr %9, i64 0, i64 0
  %120 = call i32 (ptr, ...) @errmsg(ptr noundef @.str.42, ptr noundef %119)
  call void @errfinish(ptr noundef @.str.1, i32 noundef 3408, ptr noundef @__func__.RemovePgTempFilesInDir)
  br label %121

121:                                              ; preds = %118, %116, %114
  br label %122

122:                                              ; preds = %121
  br label %123

123:                                              ; preds = %122
  br label %124

124:                                              ; preds = %123, %111
  br label %27, !llvm.loop !24

125:                                              ; preds = %27
  %126 = load ptr, ptr %7, align 8
  %127 = call i32 @FreeDir(ptr noundef %126)
  store i32 0, ptr %10, align 4
  br label %128

128:                                              ; preds = %125, %25
  call void @llvm.lifetime.end.p0(i64 2048, ptr %9) #14
  call void @llvm.lifetime.end.p0(i64 8, ptr %8) #14
  call void @llvm.lifetime.end.p0(i64 8, ptr %7) #14
  %129 = load i32, ptr %10, align 4
  switch i32 %129, label %131 [
    i32 0, label %130
    i32 1, label %130
  ]

130:                                              ; preds = %128, %128
  ret void

131:                                              ; preds = %128, %109
  unreachable
}