; Function Attrs: nounwind uwtable
define dso_local void @RemovePgTempFilesInDir(ptr noundef %0, i1 noundef zeroext %1, i1 noundef zeroext %2) local_unnamed_addr #0 {
  %4 = alloca [2048 x i8], align 16
  call void @llvm.lifetime.start.p0(i64 2048, ptr nonnull %4) #25
  %5 = tail call ptr @AllocateDir(ptr noundef %0)
  %6 = icmp eq ptr %5, null
  br i1 %6, label %7, label %11

7:                                                ; preds = %3
  %8 = tail call ptr @__errno_location() #26
  %9 = load i32, ptr %8, align 4
  %10 = icmp eq i32 %9, 2
  %brmerge.not = and i1 %1, %10
  br i1 %brmerge.not, label %FreeDir.exit, label %11

11:                                               ; preds = %7, %3
  %12 = tail call ptr @ReadDirExtended(ptr noundef %5, ptr noundef %0, i32 noundef 15)
  %.not27 = icmp eq ptr %12, null
  br i1 %.not27, label %._crit_edge, label %sub_0

sub_0:                                            ; preds = %11, %.backedge
  %13 = phi ptr [ %26, %.backedge ], [ %12, %11 ]
  %14 = getelementptr inbounds nuw i8, ptr %13, i64 19
  %15 = load i8, ptr %14, align 1
  %.not28 = icmp eq i8 %15, 46
  br i1 %.not28, label %.tail, label %.tail22.thread

.tail:                                            ; preds = %sub_0
  %16 = getelementptr inbounds nuw i8, ptr %13, i64 20
  %17 = load i8, ptr %16, align 1
  %18 = icmp eq i8 %17, 0
  br i1 %18, label %.backedge, label %sub_124

sub_124:                                          ; preds = %.tail
  %19 = getelementptr inbounds nuw i8, ptr %13, i64 20
  %20 = load i8, ptr %19, align 1
  %.not30 = icmp eq i8 %20, 46
  br i1 %.not30, label %.tail22, label %.tail22.thread

.tail22:                                          ; preds = %sub_124
  %21 = getelementptr inbounds nuw i8, ptr %13, i64 21
  %22 = load i8, ptr %21, align 1
  %23 = icmp eq i8 %22, 0
  br i1 %23, label %.backedge, label %.tail22.thread

.backedge.sink.split.sink.split:                  ; preds = %41, %36
  %.str.42.sink.ph = phi ptr [ @.str.41, %36 ], [ @.str.7, %41 ]
  %.sink.ph = phi i32 [ 3394, %36 ], [ 3402, %41 ]
  %24 = call i32 @errcode_for_file_access() #25
  br label %.backedge.sink.split

.backedge.sink.split:                             ; preds = %.backedge.sink.split.sink.split, %43
  %.str.42.sink = phi ptr [ @.str.42, %43 ], [ %.str.42.sink.ph, %.backedge.sink.split.sink.split ]
  %.sink = phi i32 [ 3408, %43 ], [ %.sink.ph, %.backedge.sink.split.sink.split ]
  %25 = call i32 (ptr, ...) @errmsg(ptr noundef nonnull %.str.42.sink, ptr noundef nonnull %4) #25
  call void @errfinish(ptr noundef nonnull @.str.1, i32 noundef %.sink, ptr noundef nonnull @__func__.RemovePgTempFilesInDir) #25
  br label %.backedge

.backedge:                                        ; preds = %.backedge.sink.split, %43, %36, %33, %41, %38, %.tail, %.tail22, %31
  %26 = call ptr @ReadDirExtended(ptr noundef %5, ptr noundef %0, i32 noundef 15)
  %.not = icmp eq ptr %26, null
  br i1 %.not, label %._crit_edge, label %sub_0, !llvm.loop !24

.tail22.thread:                                   ; preds = %sub_0, %sub_124, %.tail22
  %27 = call i32 (ptr, i64, ptr, ...) @pg_snprintf(ptr noundef nonnull %4, i64 noundef 2048, ptr noundef nonnull @.str.40, ptr noundef %0, ptr noundef nonnull %14) #25
  br i1 %2, label %31, label %28

28:                                               ; preds = %.tail22.thread
  %29 = call i32 @strncmp(ptr noundef nonnull dereferenceable(1) %14, ptr noundef nonnull dereferenceable(10) @.str.16, i64 noundef 9) #30
  %30 = icmp eq i32 %29, 0
  br i1 %30, label %31, label %43

31:                                               ; preds = %28, %.tail22.thread
  %32 = call i32 @get_dirent_type(ptr noundef nonnull %4, ptr noundef nonnull %13, i1 noundef zeroext false, i32 noundef 15) #25
  switch i32 %32, label %38 [
    i32 0, label %.backedge
    i32 3, label %33
  ]

33:                                               ; preds = %31
  call void @RemovePgTempFilesInDir(ptr noundef nonnull %4, i1 noundef zeroext false, i1 noundef zeroext true)
  %34 = call i32 @rmdir(ptr noundef nonnull %4) #25
  %35 = icmp slt i32 %34, 0
  br i1 %35, label %36, label %.backedge

36:                                               ; preds = %33
  %37 = call zeroext i1 @errstart(i32 noundef 15, ptr noundef null) #25
  br i1 %37, label %.backedge.sink.split.sink.split, label %.backedge

38:                                               ; preds = %31
  %39 = call i32 @unlink(ptr noundef nonnull %4) #25
  %40 = icmp slt i32 %39, 0
  br i1 %40, label %41, label %.backedge

41:                                               ; preds = %38
  %42 = call zeroext i1 @errstart(i32 noundef 15, ptr noundef null) #25
  br i1 %42, label %.backedge.sink.split.sink.split, label %.backedge

43:                                               ; preds = %28
  %44 = call zeroext i1 @errstart(i32 noundef 15, ptr noundef null) #25
  br i1 %44, label %.backedge.sink.split, label %.backedge

._crit_edge:                                      ; preds = %.backedge, %11
  br i1 %6, label %FreeDir.exit, label %45

45:                                               ; preds = %._crit_edge
  %46 = load i32, ptr @numAllocatedDescs, align 4
  %47 = add i32 %46, -1
  %48 = icmp sgt i32 %47, -1
  br i1 %48, label %.lr.ph.i, label %._crit_edge.i

.lr.ph.i:                                         ; preds = %45
  %49 = load ptr, ptr @allocatedDescs, align 8
  %50 = zext nneg i32 %47 to i64
  br label %51

51:                                               ; preds = %60, %.lr.ph.i
  %indvars.iv.i = phi i64 [ %50, %.lr.ph.i ], [ %indvars.iv.next.i, %60 ]
  %52 = getelementptr inbounds nuw %struct.AllocateDesc, ptr %49, i64 %indvars.iv.i
  %53 = load i32, ptr %52, align 8
  %54 = icmp eq i32 %53, 2
  br i1 %54, label %55, label %60

55:                                               ; preds = %51
  %56 = getelementptr inbounds nuw i8, ptr %52, i64 8
  %57 = load ptr, ptr %56, align 8
  %58 = icmp eq ptr %57, %5
  br i1 %58, label %.thread.i, label %60

.thread.i:                                        ; preds = %55
  %59 = call fastcc i32 @FreeDesc(ptr noundef nonnull %52)
  br label %FreeDir.exit

60:                                               ; preds = %55, %51
  %indvars.iv.next.i = add nsw i64 %indvars.iv.i, -1
  %61 = icmp sgt i64 %indvars.iv.i, 0
  br i1 %61, label %51, label %._crit_edge.i, !llvm.loop !14

._crit_edge.i:                                    ; preds = %60, %45
  %62 = call zeroext i1 @errstart(i32 noundef 19, ptr noundef null) #25
  br i1 %62, label %63, label %65

63:                                               ; preds = %._crit_edge.i
  %64 = call i32 (ptr, ...) @errmsg_internal(ptr noundef nonnull @.str.33) #25
  call void @errfinish(ptr noundef nonnull @.str.1, i32 noundef 3003, ptr noundef nonnull @__func__.FreeDir) #25
  br label %65

65:                                               ; preds = %63, %._crit_edge.i
  %66 = call i32 @closedir(ptr noundef nonnull %5)
  br label %FreeDir.exit

FreeDir.exit:                                     ; preds = %65, %.thread.i, %._crit_edge, %7
  call void @llvm.lifetime.end.p0(i64 2048, ptr nonnull %4) #25
  ret void
}